Certificate:
    Data:
        Version: 3 (0x2)
        Serial Number: 1 (0x1)
    Signature Algorithm: sha256WithRSAEncryption
        Issuer: CN=wucc.cefcfco.com, ST=shanghai, C=CN/emailAddress=fengdu_xiangyang@163.com, O=cefcfco, OU=develop
        Validity
            Not Before: Jan 21 10:19:35 2018 GMT
            Not After : Jan 20 10:19:35 2023 GMT
        Subject: CN=wucc.cefcfco.com, ST=shanghai, C=CN/emailAddress=fengdu_xiangyang@163.com, O=cefcfco, OU=devlop
        Subject Public Key Info:
            Public Key Algorithm: rsaEncryption
                Public-Key: (2048 bit)
                Modulus:
                    00:95:a7:d0:cd:54:c9:75:5f:89:99:0b:e5:57:e7:
                    af:a7:48:17:56:d0:2d:28:80:09:51:55:b2:e6:6c:
                    8d:c0:fa:23:05:f4:d2:bb:50:4a:15:c9:eb:b3:ad:
                    51:e8:a3:5c:e4:4b:8f:d6:2a:64:59:15:17:06:59:
                    36:67:57:f0:d2:57:32:4e:f2:3d:b6:01:18:a0:2a:
                    f6:30:bb:89:a9:e4:17:85:c6:1e:21:fc:90:5a:f9:
                    b9:d9:dd:11:5d:34:59:a1:83:6e:86:b0:d2:4c:aa:
                    d0:4d:49:ca:a2:f8:37:37:0f:e5:45:47:64:bf:e5:
                    69:4f:41:4d:19:5b:26:a9:44:f3:b7:99:f8:9a:6e:
                    31:e3:3c:42:0a:ab:57:1c:f9:99:fd:7d:74:22:34:
                    38:ad:d7:a7:e1:8e:77:6f:dc:66:e5:16:d1:25:90:
                    b1:27:b6:81:af:e6:e1:af:05:f9:1c:5e:50:d9:4d:
                    46:d7:9f:17:bc:81:45:84:50:9c:c8:4f:7a:55:5e:
                    25:11:23:08:a4:34:e0:3c:4b:f3:34:fd:3e:fa:c1:
                    17:68:ee:79:40:e4:a7:c2:d1:07:db:87:74:f5:c7:
                    5e:6c:3f:80:8a:36:de:94:61:7c:8e:9d:1a:59:4a:
                    b2:00:f5:f3:e8:1b:4b:c4:d2:1e:d3:21:d2:74:75:
                    76:f5
                Exponent: 65537 (0x10001)
        X509v3 extensions:
            X509v3 Basic Constraints: 
                CA:FALSE
            X509v3 Key Usage: 
                Digital Signature, Non Repudiation, Key Encipherment
    Signature Algorithm: sha256WithRSAEncryption
         a0:3b:d7:16:4c:f5:be:7d:47:a1:16:b9:22:83:49:b6:88:f4:
         c2:44:a2:58:00:7b:13:f9:2a:5a:d4:98:41:f6:39:2f:d8:db:
         74:f0:53:3a:f2:cf:e9:a4:b0:e4:29:52:62:ac:12:d5:6c:f6:
         1d:6b:5e:27:41:df:e3:d0:25:c7:96:9e:67:ff:b2:84:c2:62:
         a1:ac:21:a5:1f:c4:74:98:0b:dc:58:ab:cb:41:7c:e0:d9:35:
         16:74:18:63:c6:fb:95:6f:4b:07:71:a2:5f:34:c8:a5:05:30:
         67:43:1f:a5:ba:29:11:17:41:14:16:95:95:d0:bf:ff:58:17:
         cf:91:27:6c:5f:d5:21:37:3e:f2:fe:37:a4:89:3b:df:c7:ce:
         48:9a:6d:77:e7:ed:ac:18:fe:3e:36:1e:e0:10:e6:a6:03:c6:
         bb:ee:d1:41:5f:cd:bb:85:cf:56:ff:95:8c:cc:ff:88:70:9e:
         3d:4c:70:1e:f1:48:29:15:0a:de:79:58:f6:40:c9:78:9f:86:
         e9:d8:c1:3b:91:09:cc:7d:5a:f5:3b:c3:87:99:51:35:21:44:
         c2:17:90:98:e5:71:5e:5f:c8:62:83:a6:37:ff:a6:53:86:f2:
         f3:3f:c5:fd:83:78:4a:9a:6a:74:26:e9:24:5c:fd:04:89:56:
         6f:e6:b9:5e
-----BEGIN CERTIFICATE-----
MIIDpjCCAo6gAwIBAgIBATANBgkqhkiG9w0BAQsFADCBiDEZMBcGA1UEAwwQd3Vj
Yy5jZWZjZmNvLmNvbTERMA8GA1UECAwIc2hhbmdoYWkxCzAJBgNVBAYTAkNOMScw
JQYJKoZIhvcNAQkBFhhmZW5nZHVfeGlhbmd5YW5nQDE2My5jb20xEDAOBgNVBAoM
B2NlZmNmY28xEDAOBgNVBAsMB2RldmVsb3AwHhcNMTgwMTIxMTAxOTM1WhcNMjMw
MTIwMTAxOTM1WjCBhzEZMBcGA1UEAwwQd3VjYy5jZWZjZmNvLmNvbTERMA8GA1UE
CAwIc2hhbmdoYWkxCzAJBgNVBAYTAkNOMScwJQYJKoZIhvcNAQkBFhhmZW5nZHVf
eGlhbmd5YW5nQDE2My5jb20xEDAOBgNVBAoMB2NlZmNmY28xDzANBgNVBAsMBmRl
dmxvcDCCASIwDQYJKoZIhvcNAQEBBQADggEPADCCAQoCggEBAJWn0M1UyXVfiZkL
5Vfnr6dIF1bQLSiACVFVsuZsjcD6IwX00rtQShXJ67OtUeijXORLj9YqZFkVFwZZ
NmdX8NJXMk7yPbYBGKAq9jC7iankF4XGHiH8kFr5udndEV00WaGDboaw0kyq0E1J
yqL4NzcP5UVHZL/laU9BTRlbJqlE87eZ+JpuMeM8QgqrVxz5mf19dCI0OK3Xp+GO
d2/cZuUW0SWQsSe2ga/m4a8F+RxeUNlNRtefF7yBRYRQnMhPelVeJREjCKQ04DxL
8zT9PvrBF2jueUDkp8LRB9uHdPXHXmw/gIo23pRhfI6dGllKsgD18+gbS8TSHtMh
0nR1dvUCAwEAAaMaMBgwCQYDVR0TBAIwADALBgNVHQ8EBAMCBeAwDQYJKoZIhvcN
AQELBQADggEBAKA71xZM9b59R6EWuSKDSbaI9MJEolgAexP5KlrUmEH2OS/Y23Tw
Uzryz+mksOQpUmKsEtVs9h1rXidB3+PQJceWnmf/soTCYqGsIaUfxHSYC9xYq8tB
fODZNRZ0GGPG+5VvSwdxol80yKUFMGdDH6W6KREXQRQWlZXQv/9YF8+RJ2xf1SE3
PvL+N6SJO9/HzkiabXfn7awY/j42HuAQ5qYDxrvu0UFfzbuFz1b/lYzM/4hwnj1M
cB7xSCkVCt55WPZAyXifhunYwTuRCcx9WvU7w4eZUTUhRMIXkJjlcV5fyGKDpjf/
plOG8vM/xf2DeEqaanQm6SRc/QSJVm/muV4=
-----END CERTIFICATE-----
